; Function Attrs: mustprogress uwtable
define internal noundef i64 @_ZN7rocksdb12_GLOBAL__N_117LegacySystemClock9NowMicrosEv(ptr noundef nonnull readonly align 8 captures(none) dereferenceable(40) %0) unnamed_addr #4 align 2 {
  %2 = getelementptr inbounds nuw i8, ptr %0, i64 32
  %3 = load ptr, ptr %2, align 8, !tbaa !48
  %4 = load ptr, ptr %3, align 8, !tbaa !18
  %5 = getelementptr inbounds nuw i8, ptr %4, i64 440
  %6 = load ptr, ptr %5, align 8
  %7 = tail call noundef i64 %6(ptr noundef nonnull align 8 dereferenceable(72) %3)
  ret i64 %7
}